target datalayout = "e-m:e-p270:32:32-p271:32:32-p272:64:64-i64:64-i128:128-f80:128-n8:16:32:64-S128"
target triple = "x86_64-pc-linux-gnu"

%struct.hwloc_topology = type { i32, i32, i32, ptr, ptr, i64, [20 x i32], [20 x i32], i64, i64, i32, ptr, i64, ptr, i64, [6 x %struct.hwloc_special_level_s], ptr, ptr, %struct.hwloc_binding_hooks, %struct.hwloc_topology_support, %struct.hwloc_infos_s, ptr, ptr, i32, ptr, ptr, i32, i32, ptr, i32, i32, ptr, i32, i32, i32, [5 x float], i32, ptr, ptr, i32, i32, ptr, i32, %struct.hwloc_numanode_attr_s, i32, i32, ptr, i64, i32, ptr, ptr, ptr }
%struct.hwloc_special_level_s = type { i32, ptr, ptr, ptr }
%struct.hwloc_binding_hooks = type { ptr, ptr, ptr, ptr, ptr, ptr, ptr, ptr, ptr, ptr, ptr, ptr, ptr, ptr, ptr, ptr, ptr, ptr, ptr, ptr, ptr, ptr, ptr, ptr }
%struct.hwloc_topology_support = type { ptr, ptr, ptr, ptr }
%struct.hwloc_infos_s = type { ptr, i32, i32 }
%struct.hwloc_numanode_attr_s = type { i64, i32, ptr }

; Function Attrs: nounwind uwtable
define hidden ptr @hwloc_alloc_heap(ptr noundef %0, i64 noundef %1) #0 {
  %3 = alloca ptr, align 8
  %4 = alloca i64, align 8
  %5 = alloca ptr, align 8
  store ptr %0, ptr %3, align 8, !tbaa !3
  store i64 %1, ptr %4, align 8, !tbaa !40
  call void @llvm.lifetime.start.p0(i64 8, ptr %5) #9
  store ptr null, ptr %5, align 8, !tbaa !48
  %6 = call i64 @sysconf(i32 noundef 30) #9
  %7 = load i64, ptr %4, align 8, !tbaa !40
  %8 = call i32 @posix_memalign(ptr noundef %5, i64 noundef %6, i64 noundef %7) #9
  %9 = call ptr @__errno_location() #8
  store i32 %8, ptr %9, align 4, !tbaa !10
  %10 = call ptr @__errno_location() #8
  %11 = load i32, ptr %10, align 4, !tbaa !10
  %12 = icmp ne i32 %11, 0
  br i1 %12, label %13, label %14

13:                                               ; preds = %2
  store ptr null, ptr %5, align 8, !tbaa !48
  br label %14

14:                                               ; preds = %13, %2
  %15 = load ptr, ptr %5, align 8, !tbaa !48
  call void @llvm.lifetime.end.p0(i64 8, ptr %5) #9
  ret ptr %15
}

; Function Attrs: nounwind uwtable
define ptr @hwloc_alloc(ptr noundef %0, i64 noundef %1) #0 {
  %3 = alloca ptr, align 8
  %4 = alloca ptr, align 8
  %5 = alloca i64, align 8
  store ptr %0, ptr %4, align 8, !tbaa !3
  store i64 %1, ptr %5, align 8, !tbaa !40
  %6 = load ptr, ptr %4, align 8, !tbaa !3
  %7 = getelementptr inbounds nuw %struct.hwloc_topology, ptr %6, i32 0, i32 18
  %8 = getelementptr inbounds nuw %struct.hwloc_binding_hooks, ptr %7, i32 0, i32 20
  %9 = load ptr, ptr %8, align 8, !tbaa !66
  %10 = icmp ne ptr %9, null
  br i1 %10, label %11, label %19

11:                                               ; preds = %2
  %12 = load ptr, ptr %4, align 8, !tbaa !3
  %13 = getelementptr inbounds nuw %struct.hwloc_topology, ptr %12, i32 0, i32 18
  %14 = getelementptr inbounds nuw %struct.hwloc_binding_hooks, ptr %13, i32 0, i32 20
  %15 = load ptr, ptr %14, align 8, !tbaa !66
  %16 = load ptr, ptr %4, align 8, !tbaa !3
  %17 = load i64, ptr %5, align 8, !tbaa !40
  %18 = call ptr %15(ptr noundef %16, i64 noundef %17)
  store ptr %18, ptr %3, align 8
  br label %23

19:                                               ; preds = %2
  %20 = load ptr, ptr %4, align 8, !tbaa !3
  %21 = load i64, ptr %5, align 8, !tbaa !40
  %22 = call ptr @hwloc_alloc_heap(ptr noundef %20, i64 noundef %21)
  store ptr %22, ptr %3, align 8
  br label %23

23:                                               ; preds = %19, %11
  %24 = load ptr, ptr %3, align 8
  ret ptr %24
}

; Function Attrs: nounwind uwtable
define noalias ptr @hwloc_alloc_membind(ptr noundef %0, i64 noundef %1, ptr noundef %2, i32 noundef %3, i32 noundef %4) #0 {
  %6 = alloca ptr, align 8
  %7 = alloca i64, align 8
  %8 = alloca ptr, align 8
  %9 = alloca i32, align 4
  %10 = alloca i32, align 4
  %11 = alloca ptr, align 8
  %12 = alloca ptr, align 8
  store ptr %0, ptr %6, align 8, !tbaa !3
  store i64 %1, ptr %7, align 8, !tbaa !40
  store ptr %2, ptr %8, align 8, !tbaa !8
  store i32 %3, ptr %9, align 4, !tbaa !10
  store i32 %4, ptr %10, align 4, !tbaa !10
  call void @llvm.lifetime.start.p0(i64 8, ptr %11) #9
  %13 = load i32, ptr %10, align 4, !tbaa !10
  %14 = and i32 %13, 32
  %15 = icmp ne i32 %14, 0
  br i1 %15, label %16, label %23

16:                                               ; preds = %5
  %17 = load ptr, ptr %6, align 8, !tbaa !3
  %18 = load i64, ptr %7, align 8, !tbaa !40
  %19 = load ptr, ptr %8, align 8, !tbaa !8
  %20 = load i32, ptr %9, align 4, !tbaa !10
  %21 = load i32, ptr %10, align 4, !tbaa !10
  %22 = call ptr @hwloc_alloc_membind_by_nodeset(ptr noundef %17, i64 noundef %18, ptr noundef %19, i32 noundef %20, i32 noundef %21)
  store ptr %22, ptr %11, align 8, !tbaa !48
  br label %49

23:                                               ; preds = %5
  call void @llvm.lifetime.start.p0(i64 8, ptr %12) #9
  %24 = call noalias ptr @hwloc_bitmap_alloc()
  store ptr %24, ptr %12, align 8, !tbaa !8
  %25 = load ptr, ptr %6, align 8, !tbaa !3
  %26 = load ptr, ptr %12, align 8, !tbaa !8
  %27 = load ptr, ptr %8, align 8, !tbaa !8
  %28 = call i32 @hwloc_fix_membind_cpuset(ptr noundef %25, ptr noundef %26, ptr noundef %27)
  %29 = icmp ne i32 %28, 0
  br i1 %29, label %30, label %40

30:                                               ; preds = %23
  %31 = load i32, ptr %10, align 4, !tbaa !10
  %32 = and i32 %31, 4
  %33 = icmp ne i32 %32, 0
  br i1 %33, label %34, label %35

34:                                               ; preds = %30
  store ptr null, ptr %11, align 8, !tbaa !48
  br label %39

35:                                               ; preds = %30
  %36 = load ptr, ptr %6, align 8, !tbaa !3
  %37 = load i64, ptr %7, align 8, !tbaa !40
  %38 = call ptr @hwloc_alloc(ptr noundef %36, i64 noundef %37)
  store ptr %38, ptr %11, align 8, !tbaa !48
  br label %39

39:                                               ; preds = %35, %34
  br label %47

40:                                               ; preds = %23
  %41 = load ptr, ptr %6, align 8, !tbaa !3
  %42 = load i64, ptr %7, align 8, !tbaa !40
  %43 = load ptr, ptr %12, align 8, !tbaa !8
  %44 = load i32, ptr %9, align 4, !tbaa !10
  %45 = load i32, ptr %10, align 4, !tbaa !10
  %46 = call ptr @hwloc_alloc_membind_by_nodeset(ptr noundef %41, i64 noundef %42, ptr noundef %43, i32 noundef %44, i32 noundef %45)
  store ptr %46, ptr %11, align 8, !tbaa !48
  br label %47

47:                                               ; preds = %40, %39
  %48 = load ptr, ptr %12, align 8, !tbaa !8
  call void @hwloc_bitmap_free(ptr noundef %48)
  call void @llvm.lifetime.end.p0(i64 8, ptr %12) #9
  br label %49

49:                                               ; preds = %47, %16
  %50 = load ptr, ptr %11, align 8, !tbaa !48
  call void @llvm.lifetime.end.p0(i64 8, ptr %11) #9
  ret ptr %50
}