; Function Attrs: nounwind uwtable
define noalias ptr @hwloc_alloc_membind(ptr noundef %0, i64 noundef %1, ptr noundef %2, i32 noundef %3, i32 noundef %4) local_unnamed_addr #0 {
  %6 = alloca ptr, align 8
  %7 = and i32 %4, 32
  %.not = icmp eq i32 %7, 0
  br i1 %.not, label %10, label %8

8:                                                ; preds = %5
  %9 = tail call fastcc ptr @hwloc_alloc_membind_by_nodeset(ptr noundef %0, i64 noundef %1, ptr noundef %2, i32 noundef %3, i32 noundef %4)
  br label %27

10:                                               ; preds = %5
  %11 = tail call noalias ptr @hwloc_bitmap_alloc() #14
  %12 = tail call fastcc i32 @hwloc_fix_membind_cpuset(ptr noundef %0, ptr noundef %11, ptr noundef %2)
  %.not18 = icmp eq i32 %12, 0
  br i1 %.not18, label %25, label %13

13:                                               ; preds = %10
  %14 = and i32 %4, 4
  %.not19 = icmp eq i32 %14, 0
  br i1 %.not19, label %15, label %hwloc_alloc.exit

15:                                               ; preds = %13
  %16 = getelementptr inbounds nuw i8, ptr %0, i64 624
  %17 = load ptr, ptr %16, align 8, !tbaa !65
  %.not.i = icmp eq ptr %17, null
  br i1 %.not.i, label %20, label %18

18:                                               ; preds = %15
  %19 = tail call ptr %17(ptr noundef nonnull %0, i64 noundef %1) #14
  br label %hwloc_alloc.exit

20:                                               ; preds = %15
  call void @llvm.lifetime.start.p0(i64 8, ptr nonnull %6) #14
  store ptr null, ptr %6, align 8, !tbaa !64
  %21 = tail call i64 @sysconf(i32 noundef 30) #14
  %22 = call i32 @posix_memalign(ptr noundef nonnull %6, i64 noundef %21, i64 noundef %1) #14
  %23 = tail call ptr @__errno_location() #12
  store i32 %22, ptr %23, align 4, !tbaa !3
  %.not.i.i = icmp eq i32 %22, 0
  %.pre.i.i = load ptr, ptr %6, align 8
  %24 = select i1 %.not.i.i, ptr %.pre.i.i, ptr null
  call void @llvm.lifetime.end.p0(i64 8, ptr nonnull %6) #14
  br label %hwloc_alloc.exit

25:                                               ; preds = %10
  %26 = tail call fastcc ptr @hwloc_alloc_membind_by_nodeset(ptr noundef %0, i64 noundef %1, ptr noundef %11, i32 noundef %3, i32 noundef %4)
  br label %hwloc_alloc.exit

hwloc_alloc.exit:                                 ; preds = %20, %18, %13, %25
  %.1 = phi ptr [ %26, %25 ], [ null, %13 ], [ %19, %18 ], [ %24, %20 ]
  call void @hwloc_bitmap_free(ptr noundef %11) #14
  br label %27

27:                                               ; preds = %hwloc_alloc.exit, %8
  %.0 = phi ptr [ %9, %8 ], [ %.1, %hwloc_alloc.exit ]
  ret ptr %.0
}